; Function Attrs: null_pointer_is_valid sspstrong uwtable
define hidden i32 @mapi_dissect_enum_relMBR(ptr noundef %0, i32 noundef %1, ptr noundef %2, ptr noundef %3, ptr noundef %4, ptr noundef %5, i32 noundef %6, ptr noundef captures(address_is_null) %7) local_unnamed_addr #0 {
  %9 = alloca i8, align 1
  call void @llvm.lifetime.start.p0(i64 1, ptr nonnull %9) #6
  store i8 0, ptr %9, align 1
  %.not = icmp eq ptr %7, null
  br i1 %.not, label %.thread, label %11

.thread:                                          ; preds = %8
  %10 = call i32 @dissect_ndr_uint8(ptr noundef %0, i32 noundef %1, ptr noundef %2, ptr noundef %3, ptr noundef %4, ptr noundef %5, i32 noundef %6, ptr noundef nonnull %9)
  br label %15

11:                                               ; preds = %8
  %12 = load i8, ptr %7, align 1
  store i8 %12, ptr %9, align 1
  %13 = call i32 @dissect_ndr_uint8(ptr noundef %0, i32 noundef %1, ptr noundef %2, ptr noundef %3, ptr noundef %4, ptr noundef %5, i32 noundef %6, ptr noundef nonnull %9)
  %14 = load i8, ptr %9, align 1
  store i8 %14, ptr %7, align 1
  br label %15

15:                                               ; preds = %.thread, %11
  %16 = phi i32 [ %10, %.thread ], [ %13, %11 ]
  call void @llvm.lifetime.end.p0(i64 1, ptr nonnull %9) #6
  ret i32 %16
}